target datalayout = "e-m:e-p270:32:32-p271:32:32-p272:64:64-i64:64-i128:128-f80:128-n8:16:32:64-S128"
target triple = "x86_64-pc-linux-gnu"

%struct.reassembly_table = type { ptr, ptr, ptr, ptr, ptr }
%struct.reassembly_table_functions = type { ptr, ptr, ptr, ptr, ptr, ptr }

@proto_register_pop.ett = internal global [4 x ptr] [ptr @ett_pop, ptr @ett_pop_reqresp, ptr @ett_pop_data_fragment, ptr @ett_pop_data_fragments], align 16
@.str.48 = private unnamed_addr constant [21 x i8] c"Post Office Protocol\00", align 1
@.str.49 = private unnamed_addr constant [4 x i8] c"POP\00", align 1
@.str.50 = private unnamed_addr constant [4 x i8] c"pop\00", align 1
@proto_pop = internal global i32 0, align 4
@pop_handle = internal global ptr null, align 8
@pop_data_reassembly_table = internal global %struct.reassembly_table zeroinitializer, align 8
@addresses_ports_reassembly_table_functions = external constant %struct.reassembly_table_functions, align 8
@.str.51 = private unnamed_addr constant [15 x i8] c"desegment_data\00", align 1
@.str.52 = private unnamed_addr constant [69 x i8] c"Reassemble POP RETR and TOP responses spanning multiple TCP segments\00", align 1
@.str.53 = private unnamed_addr constant [222 x i8] c"Whether the POP dissector should reassemble RETR and TOP responses and spanning multiple TCP segments. To use this option, you must also enable \22Allow subdissectors to reassemble TCP streams\22 in the TCP protocol settings.\00", align 1
@pop_data_desegment = internal global i8 1, align 1
@.str.54 = private unnamed_addr constant [12 x i8] c"credentials\00", align 1
@credentials_tap = internal global i32 0, align 4

; Function Attrs: null_pointer_is_valid sspstrong uwtable
define hidden void @proto_register_pop() #0 {
  %1 = alloca ptr, align 8
  %2 = alloca ptr, align 8
  call void @llvm.lifetime.start.p0(i64 8, ptr %1) #8
  call void @llvm.lifetime.start.p0(i64 8, ptr %2) #8
  %3 = call i32 @proto_register_protocol(ptr noundef @.str.48, ptr noundef @.str.49, ptr noundef @.str.50)
  store i32 %3, ptr @proto_pop, align 4
  %4 = load i32, ptr @proto_pop, align 4
  %5 = call ptr @register_dissector(ptr noundef @.str.50, ptr noundef @dissect_pop, i32 noundef %4)
  store ptr %5, ptr @pop_handle, align 8
  %6 = load i32, ptr @proto_pop, align 4
  call void @proto_register_field_array(i32 noundef %6, ptr noundef @proto_register_pop.hf, i32 noundef 18)
  call void @proto_register_subtree_array(ptr noundef @proto_register_pop.ett, i32 noundef 4)
  call void @reassembly_table_register(ptr noundef @pop_data_reassembly_table, ptr noundef @addresses_ports_reassembly_table_functions)
  %7 = load i32, ptr @proto_pop, align 4
  %8 = call ptr @prefs_register_protocol(i32 noundef %7, ptr noundef null)
  store ptr %8, ptr %2, align 8
  %9 = load ptr, ptr %2, align 8
  call void @prefs_register_bool_preference(ptr noundef %9, ptr noundef @.str.51, ptr noundef @.str.52, ptr noundef @.str.53, ptr noundef @pop_data_desegment)
  %10 = load i32, ptr @proto_pop, align 4
  %11 = call ptr @expert_register_protocol(i32 noundef %10)
  store ptr %11, ptr %1, align 8
  %12 = load ptr, ptr %1, align 8
  call void @expert_register_field_array(ptr noundef %12, ptr noundef @proto_register_pop.ei, i32 noundef 1)
  %13 = call i32 @register_tap(ptr noundef @.str.54)
  store i32 %13, ptr @credentials_tap, align 4
  call void @llvm.lifetime.end.p0(i64 8, ptr %2) #8
  call void @llvm.lifetime.end.p0(i64 8, ptr %1) #8
  ret void
}