; Function Attrs: null_pointer_is_valid sspstrong uwtable
define hidden void @proto_register_pop() local_unnamed_addr #0 {
  %1 = tail call i32 @proto_register_protocol(ptr noundef nonnull @.str.48, ptr noundef nonnull @.str.49, ptr noundef nonnull @.str.50)
  store i32 %1, ptr @proto_pop, align 4
  %2 = tail call ptr @register_dissector(ptr noundef nonnull @.str.50, ptr noundef nonnull @dissect_pop, i32 noundef %1)
  store ptr %2, ptr @pop_handle, align 8
  %3 = load i32, ptr @proto_pop, align 4
  tail call void @proto_register_field_array(i32 noundef %3, ptr noundef nonnull @proto_register_pop.hf, i32 noundef 18)
  tail call void @proto_register_subtree_array(ptr noundef nonnull @proto_register_pop.ett, i32 noundef 4)
  tail call void @reassembly_table_register(ptr noundef nonnull @pop_data_reassembly_table, ptr noundef nonnull @addresses_ports_reassembly_table_functions)
  %4 = load i32, ptr @proto_pop, align 4
  %5 = tail call ptr @prefs_register_protocol(i32 noundef %4, ptr noundef null)
  tail call void @prefs_register_bool_preference(ptr noundef %5, ptr noundef nonnull @.str.51, ptr noundef nonnull @.str.52, ptr noundef nonnull @.str.53, ptr noundef nonnull @pop_data_desegment)
  %6 = load i32, ptr @proto_pop, align 4
  %7 = tail call ptr @expert_register_protocol(i32 noundef %6)
  tail call void @expert_register_field_array(ptr noundef %7, ptr noundef nonnull @proto_register_pop.ei, i32 noundef 1)
  %8 = tail call i32 @register_tap(ptr noundef nonnull @.str.54)
  store i32 %8, ptr @credentials_tap, align 4
  ret void
}